Certificate:
    Data:
        Version: 3 (0x2)
        Serial Number: 4096 (0x1000)
        Signature Algorithm: sha256WithRSAEncryption
        Issuer: C=SV, ST=San Salvador, L=San Salvador, O=Red235, OU=IT, CN=red235 CA/emailAddress=admin@red235.com
        Validity
            Not Before: Oct  6 23:07:51 2025 GMT
            Not After : Oct  6 23:07:51 2026 GMT
        Subject: C=SV, ST=San Salvador, O=Red235, OU=IT, CN=articuno.com/emailAddress=admin@articuno.com
        Subject Public Key Info:
            Public Key Algorithm: rsaEncryption
                Public-Key: (2048 bit)
                Modulus:
                    00:db:96:47:cc:5d:23:2b:0e:a3:a4:f6:23:7a:26:
                    69:d3:97:3c:7b:cb:84:93:b6:88:59:01:fd:d0:75:
                    c0:67:aa:70:5b:c3:5c:ae:27:1e:3f:7a:a2:a7:06:
                    b7:ce:5f:39:e6:0f:7b:9c:6b:99:5b:90:72:a4:1a:
                    ce:2a:3b:a6:9f:ac:84:b7:7c:6f:bb:63:ce:c0:00:
                    bf:d9:36:61:35:9c:41:ec:5b:98:51:8f:96:77:42:
                    c3:4a:96:4b:8e:7d:30:4b:94:86:ae:a3:c3:05:2c:
                    df:6e:60:3b:fd:24:dc:53:75:e3:84:36:bd:64:b7:
                    20:f7:79:11:ef:48:6e:49:c7:6c:42:7a:93:2f:d6:
                    4a:a9:86:2e:c9:27:0c:61:c6:94:0b:db:6d:3c:a4:
                    bb:71:59:4a:0d:ef:f4:19:bb:66:4e:ea:b9:95:07:
                    36:01:b5:a6:b6:69:2e:43:4d:d5:9f:24:ec:8c:93:
                    b6:80:9b:7e:41:5d:d4:26:19:eb:7d:7b:a5:47:2e:
                    5d:78:29:b7:8c:26:29:32:15:dd:35:b8:98:9e:c2:
                    a5:a9:3b:3e:1a:b4:10:65:b5:2c:00:7c:0b:d4:4f:
                    17:be:f5:9f:80:60:1d:93:93:61:b7:bf:2f:79:e3:
                    29:3b:f5:d6:24:2b:59:de:66:0b:f8:26:b2:3f:9a:
                    2c:3b
                Exponent: 65537 (0x10001)
        X509v3 extensions:
            X509v3 Basic Constraints: 
                CA:FALSE
            X509v3 Key Usage: 
                Digital Signature, Non Repudiation, Key Encipherment
            X509v3 Subject Alternative Name: 
                DNS:onix.com, DNS:wwww.onix.com, DNS:raichu.com, DNS:wwww.raichu.com, DNS:articuno.com, DNS:www.articuno.com, DNS:seadra.com, DNS:www.seadra.com
            X509v3 Subject Key Identifier: 
                C9:D6:F9:C7:78:28:F1:3C:78:A0:CA:F3:DB:8E:5D:EB:1E:D5:D0:CA
            X509v3 Authority Key Identifier: 
                9F:C1:63:FE:4C:8D:93:B2:A8:2C:CB:B5:9A:93:4F:11:A8:83:B3:69
    Signature Algorithm: sha256WithRSAEncryption
    Signature Value:
        6c:8e:fe:a3:35:ef:73:25:c8:e7:a7:5c:3e:35:5c:db:7e:15:
        5f:cd:ec:61:8f:ec:c7:08:97:ea:ef:75:11:e9:c3:ae:c0:4c:
        e2:83:1b:0e:d5:3d:9f:c6:b4:34:89:b0:81:fb:6a:f7:7e:2a:
        89:bf:12:6d:b9:86:25:73:6a:2f:ec:95:2b:1d:fc:6b:58:5f:
        fa:3a:08:8a:32:43:35:70:2e:14:3a:3f:39:9a:6e:60:6a:03:
        ba:13:8f:24:45:ac:ab:9e:1c:f1:4b:37:9e:c0:4e:09:4b:e0:
        88:85:47:ac:8f:2b:6a:e8:f4:a7:69:46:73:10:1a:f8:60:18:
        29:6d:ec:ba:68:1e:5e:1e:5a:95:dc:f2:47:47:27:d9:a9:26:
        ed:85:2a:b7:28:9d:c7:a5:9f:ef:cb:2c:ec:2e:fc:30:0c:28:
        1f:73:46:d6:73:52:d0:65:9a:f2:9e:8e:1e:22:0f:e1:96:be:
        60:46:3d:8b:1c:24:f7:cb:3b:07:21:c8:30:61:d5:bf:23:ec:
        16:70:6c:b7:8e:9d:e6:88:c2:31:86:05:f4:6c:f2:bd:31:5d:
        10:a5:0b:47:62:44:51:42:d7:d5:32:12:49:77:f1:d9:26:cb:
        a9:2a:33:1f:72:8f:3f:dd:55:40:3e:9e:aa:ad:4c:b0:72:1f:
        84:a2:c7:36:46:88:54:43:fa:9c:ae:ec:e4:43:54:75:81:be:
        32:e2:e9:36:b4:17:f3:f5:9b:a3:98:b7:47:d5:4c:b4:cd:ee:
        06:29:b4:e2:fb:a9:5f:ec:e6:f2:06:83:d6:32:d9:ca:58:98:
        0b:f9:e2:36:5c:6f:5e:bd:74:45:54:8e:ca:dd:74:47:c3:b0:
        2e:78:1e:28:8c:83:bd:16:a2:b8:1d:c3:61:5c:2d:d0:f6:62:
        3f:15:d9:2f:0c:22:90:48:17:eb:03:1f:5d:f8:07:31:87:8e:
        d3:d1:6f:47:a6:b9:ef:b1:52:28:d9:99:5e:69:74:38:32:aa:
        05:53:d8:35:86:6d:32:d3:59:64:d9:fd:ed:cc:23:c7:ec:0d:
        af:ff:15:c5:9f:20:d9:46:34:f6:76:59:12:52:74:83:6a:1d:
        ec:76:d2:f5:0c:c5:bf:10:78:01:a4:c5:2b:20:86:41:07:77:
        ce:70:e8:ec:3d:63:11:61:29:72:dc:8d:43:79:96:bf:55:70:
        65:b5:b6:91:cd:5b:88:55:15:70:82:a9:d4:b0:b3:c8:d9:3c:
        4c:7f:f2:ab:cb:a0:84:51:4d:cb:a6:aa:4c:9d:94:ba:f8:57:
        f4:c9:09:76:32:10:3b:2e:b4:cc:a7:0f:41:a1:c5:56:41:dc:
        33:8c:06:aa:57:d8:6f:5f
-----BEGIN CERTIFICATE-----
MIIFYDCCA0igAwIBAgICEAAwDQYJKoZIhvcNAQELBQAwgY4xCzAJBgNVBAYTAlNW
MRUwEwYDVQQIDAxTYW4gU2FsdmFkb3IxFTATBgNVBAcMDFNhbiBTYWx2YWRvcjEP
MA0GA1UECgwGUmVkMjM1MQswCQYDVQQLDAJJVDESMBAGA1UEAwwJcmVkMjM1IENB
MR8wHQYJKoZIhvcNAQkBFhBhZG1pbkByZWQyMzUuY29tMB4XDTI1MTAwNjIzMDc1
MVoXDTI2MTAwNjIzMDc1MVowfDELMAkGA1UEBhMCU1YxFTATBgNVBAgMDFNhbiBT
YWx2YWRvcjEPMA0GA1UECgwGUmVkMjM1MQswCQYDVQQLDAJJVDEVMBMGA1UEAwwM
YXJ0aWN1bm8uY29tMSEwHwYJKoZIhvcNAQkBFhJhZG1pbkBhcnRpY3Vuby5jb20w
ggEiMA0GCSqGSIb3DQEBAQUAA4IBDwAwggEKAoIBAQDblkfMXSMrDqOk9iN6JmnT
lzx7y4STtohZAf3QdcBnqnBbw1yuJx4/eqKnBrfOXznmD3uca5lbkHKkGs4qO6af
rIS3fG+7Y87AAL/ZNmE1nEHsW5hRj5Z3QsNKlkuOfTBLlIauo8MFLN9uYDv9JNxT
deOENr1ktyD3eRHvSG5Jx2xCepMv1kqphi7JJwxhxpQL2208pLtxWUoN7/QZu2ZO
6rmVBzYBtaa2aS5DTdWfJOyMk7aAm35BXdQmGet9e6VHLl14KbeMJikyFd01uJie
wqWpOz4atBBltSwAfAvUTxe+9Z+AYB2Tk2G3vy954yk79dYkK1neZgv4JrI/miw7
AgMBAAGjgdgwgdUwCQYDVR0TBAIwADALBgNVHQ8EBAMCBeAwewYDVR0RBHQwcoII
b25peC5jb22CDXd3d3cub25peC5jb22CCnJhaWNodS5jb22CD3d3d3cucmFpY2h1
LmNvbYIMYXJ0aWN1bm8uY29tghB3d3cuYXJ0aWN1bm8uY29tggpzZWFkcmEuY29t
gg53d3cuc2VhZHJhLmNvbTAdBgNVHQ4EFgQUydb5x3go8Tx4oMrz245d6x7V0Mow
HwYDVR0jBBgwFoAUn8Fj/kyNk7KoLMu1mpNPEaiDs2kwDQYJKoZIhvcNAQELBQAD
ggIBAGyO/qM173MlyOenXD41XNt+FV/N7GGP7McIl+rvdRHpw67ATOKDGw7VPZ/G
tDSJsIH7avd+Kom/Em25hiVzai/slSsd/GtYX/o6CIoyQzVwLhQ6PzmabmBqA7oT
jyRFrKueHPFLN57ATglL4IiFR6yPK2ro9KdpRnMQGvhgGClt7LpoHl4eWpXc8kdH
J9mpJu2FKrconceln+/LLOwu/DAMKB9zRtZzUtBlmvKejh4iD+GWvmBGPYscJPfL
OwchyDBh1b8j7BZwbLeOneaIwjGGBfRs8r0xXRClC0diRFFC19UyEkl38dkmy6kq
Mx9yjz/dVUA+nqqtTLByH4SixzZGiFRD+pyu7ORDVHWBvjLi6Ta0F/P1m6OYt0fV
TLTN7gYptOL7qV/s5vIGg9Yy2cpYmAv54jZcb169dEVUjsrddEfDsC54HiiMg70W
orgdw2FcLdD2Yj8V2S8MIpBIF+sDH134BzGHjtPRb0emue+xUijZmV5pdDgyqgVT
2DWGbTLTWWTZ/e3MI8fsDa//FcWfINlGNPZ2WRJSdINqHex20vUMxb8QeAGkxSsg
hkEHd85w6Ow9YxFhKXLcjUN5lr9VcGW1tpHNW4hVFXCCqdSws8jZPEx/8qvLoIRR
TcumqkydlLr4V/TJCXYyEDsutMynD0GhxVZB3DOMBqpX2G9f
-----END CERTIFICATE-----
