Certificate:
    Data:
        Version: 3 (0x2)
        Serial Number: 4099 (0x1003)
        Signature Algorithm: sha256WithRSAEncryption
        Issuer: C=SV, ST=opcional, L=opcional, O=opcional, OU=Red435, CN=red435 CA/emailAddress=optional
        Validity
            Not Before: Oct  3 21:16:54 2025 GMT
            Not After : Oct  3 21:16:54 2026 GMT
        Subject: C=SV, ST=Estado, O=Red235, OU=IT, CN=seadra.com/emailAddress=admin@seadra.com
        Subject Public Key Info:
            Public Key Algorithm: rsaEncryption
                Public-Key: (2048 bit)
                Modulus:
                    00:cf:a5:96:10:b4:d5:91:89:3e:80:b5:c5:4d:07:
                    46:27:34:57:98:28:8b:1f:b5:c2:f6:39:5c:a9:64:
                    a0:d4:13:f9:01:38:33:4b:db:4e:52:f8:3e:0a:b8:
                    28:21:c7:de:25:e3:fd:93:1a:2d:fe:6a:14:a4:af:
                    24:9d:b1:d4:5c:d5:31:6b:e3:56:13:ff:c1:a8:71:
                    1a:02:6f:e2:ff:c4:94:85:33:0b:1c:1d:f8:97:47:
                    61:f6:4a:e5:78:b1:97:bf:fd:0a:84:1d:eb:04:d8:
                    4f:a5:89:ba:59:e3:4b:93:50:56:a8:b4:b4:ba:ce:
                    ac:e8:ab:c6:60:2e:86:81:bc:e1:a5:ca:8c:e8:2d:
                    dd:3a:fd:2b:dd:71:0a:ef:11:c2:97:cd:66:cd:cb:
                    0d:fc:58:cf:70:ad:26:7e:6c:b3:18:57:cf:a4:72:
                    5f:29:46:e3:69:2f:45:e6:b2:e8:ef:c7:f6:73:6b:
                    57:80:c6:c5:fc:d5:6e:5a:bc:8f:af:75:15:10:0e:
                    99:f0:c2:4c:c9:cd:03:89:24:80:40:2c:f7:39:4e:
                    28:d8:52:cd:21:46:c5:e1:91:04:0b:fa:c8:17:a6:
                    04:9c:d2:50:f2:af:73:82:ee:57:89:c0:06:08:a6:
                    45:2e:ee:71:64:0c:ac:a8:f4:ed:e7:15:ca:5e:05:
                    78:a5
                Exponent: 65537 (0x10001)
        X509v3 extensions:
            X509v3 Basic Constraints: 
                CA:FALSE
            X509v3 Key Usage: 
                Digital Signature, Non Repudiation, Key Encipherment
            X509v3 Subject Alternative Name: 
                DNS:seadra.com, DNS:www.seadra.com
            X509v3 Subject Key Identifier: 
                EE:71:35:AB:56:A2:79:52:B7:6E:9E:32:15:78:2A:6B:2C:73:99:E7
            X509v3 Authority Key Identifier: 
                8B:07:BC:58:94:78:15:55:A5:D6:F1:5F:A9:76:E6:78:34:1F:50:AF
    Signature Algorithm: sha256WithRSAEncryption
    Signature Value:
        95:cb:58:f9:ff:4b:4a:d5:6d:30:f3:9a:5d:3e:dd:65:4a:3f:
        3e:e2:b3:7e:7b:38:e7:c5:e1:28:86:26:37:53:0c:6d:bd:0b:
        80:2d:a4:d9:a8:c7:97:9b:d0:e3:08:42:f6:8f:3f:b9:01:81:
        de:ca:52:d2:03:5c:35:a9:f3:9d:5a:25:6d:52:5a:1d:90:0f:
        aa:86:c9:59:eb:7f:64:ff:c5:1d:e8:51:d4:0a:ab:dc:88:d4:
        6c:d0:41:a7:ea:39:de:88:da:74:10:4b:97:4a:0c:82:6c:96:
        f3:b0:57:d1:1f:67:4a:1b:59:fb:7a:75:40:60:0b:58:ed:79:
        2a:23:68:2f:f3:3a:b7:56:bc:c8:2e:2a:29:e7:5c:00:30:e0:
        b7:d2:9a:35:53:65:29:34:3f:6e:ee:42:09:e0:67:09:26:3c:
        d7:8f:ce:47:31:01:a1:fc:55:3d:38:5d:5b:f5:c3:50:f6:a5:
        3c:30:02:55:69:43:69:fc:3e:32:41:a4:34:d8:86:38:7f:4b:
        10:8b:f1:f1:2f:60:0b:f7:e7:a3:e9:3d:c3:32:f9:75:a2:17:
        5f:f5:bf:8b:d0:57:55:04:a1:8f:3f:5b:ec:f2:90:05:35:47:
        cd:a4:0f:bf:32:4b:fd:ad:9e:e2:43:46:3d:4b:0b:af:40:6e:
        2a:6b:89:20:23:1a:fa:f5:28:6c:8b:ec:0e:a8:a9:79:ca:19:
        7d:65:30:a8:be:e3:03:f9:60:67:64:ac:9f:ef:66:26:8f:f7:
        af:7b:ac:84:f2:4d:66:66:ef:0c:e2:9d:b2:8f:76:96:52:f1:
        77:eb:0d:3c:8f:37:4b:b7:db:f0:4e:d4:93:18:8b:e0:ab:5f:
        bb:82:06:f7:24:25:44:52:ac:52:33:18:aa:84:2e:d2:ad:76:
        30:65:67:12:a5:4e:b3:77:2b:60:a1:0a:4c:3b:c3:63:2f:71:
        3d:32:44:2e:1c:ec:5b:02:63:b0:f5:fb:46:b1:69:0d:ff:8e:
        6c:f9:54:28:88:f3:13:07:9d:dd:1d:0b:23:f9:82:e8:1d:19:
        32:f4:18:48:6e:11:a9:49:3e:28:a3:d4:33:8a:72:10:5d:ca:
        4c:f2:5f:95:d6:4a:38:b9:81:04:06:7e:a0:cc:bc:55:bb:ba:
        11:5b:5f:e2:cb:3b:06:4e:c9:3e:a7:6b:a3:05:a3:ee:0e:da:
        7e:d7:03:56:34:bd:2a:82:e5:33:57:83:b1:92:90:df:ba:59:
        13:04:ba:b8:75:ff:68:ce:8c:0c:83:69:72:a7:1a:72:04:3e:
        d7:66:c2:c5:ba:55:84:d8:13:c0:10:7f:68:eb:94:60:c3:70:
        88:fc:c8:85:7f:01:b2:10
-----BEGIN CERTIFICATE-----
MIIE9TCCAt2gAwIBAgICEAMwDQYJKoZIhvcNAQELBQAwgYQxCzAJBgNVBAYTAlNW
MREwDwYDVQQIDAhvcGNpb25hbDERMA8GA1UEBwwIb3BjaW9uYWwxETAPBgNVBAoM
CG9wY2lvbmFsMQ8wDQYDVQQLDAZSZWQ0MzUxEjAQBgNVBAMMCXJlZDQzNSBDQTEX
MBUGCSqGSIb3DQEJARYIb3B0aW9uYWwwHhcNMjUxMDAzMjExNjU0WhcNMjYxMDAz
MjExNjU0WjByMQswCQYDVQQGEwJTVjEPMA0GA1UECAwGRXN0YWRvMQ8wDQYDVQQK
DAZSZWQyMzUxCzAJBgNVBAsMAklUMRMwEQYDVQQDDApzZWFkcmEuY29tMR8wHQYJ
KoZIhvcNAQkBFhBhZG1pbkBzZWFkcmEuY29tMIIBIjANBgkqhkiG9w0BAQEFAAOC
AQ8AMIIBCgKCAQEAz6WWELTVkYk+gLXFTQdGJzRXmCiLH7XC9jlcqWSg1BP5ATgz
S9tOUvg+CrgoIcfeJeP9kxot/moUpK8knbHUXNUxa+NWE//BqHEaAm/i/8SUhTML
HB34l0dh9krleLGXv/0KhB3rBNhPpYm6WeNLk1BWqLS0us6s6KvGYC6GgbzhpcqM
6C3dOv0r3XEK7xHCl81mzcsN/FjPcK0mfmyzGFfPpHJfKUbjaS9F5rLo78f2c2tX
gMbF/NVuWryPr3UVEA6Z8MJMyc0DiSSAQCz3OU4o2FLNIUbF4ZEEC/rIF6YEnNJQ
8q9zgu5XicAGCKZFLu5xZAysqPTt5xXKXgV4pQIDAQABo4GBMH8wCQYDVR0TBAIw
ADALBgNVHQ8EBAMCBeAwJQYDVR0RBB4wHIIKc2VhZHJhLmNvbYIOd3d3LnNlYWRy
YS5jb20wHQYDVR0OBBYEFO5xNatWonlSt26eMhV4Kmssc5nnMB8GA1UdIwQYMBaA
FIsHvFiUeBVVpdbxX6l25ng0H1CvMA0GCSqGSIb3DQEBCwUAA4ICAQCVy1j5/0tK
1W0w85pdPt1lSj8+4rN+ezjnxeEohiY3UwxtvQuALaTZqMeXm9DjCEL2jz+5AYHe
ylLSA1w1qfOdWiVtUlodkA+qhslZ639k/8Ud6FHUCqvciNRs0EGn6jneiNp0EEuX
SgyCbJbzsFfRH2dKG1n7enVAYAtY7XkqI2gv8zq3VrzILiop51wAMOC30po1U2Up
ND9u7kIJ4GcJJjzXj85HMQGh/FU9OF1b9cNQ9qU8MAJVaUNp/D4yQaQ02IY4f0sQ
i/HxL2AL9+ej6T3DMvl1ohdf9b+L0FdVBKGPP1vs8pAFNUfNpA+/Mkv9rZ7iQ0Y9
SwuvQG4qa4kgIxr69Shsi+wOqKl5yhl9ZTCovuMD+WBnZKyf72Ymj/eve6yE8k1m
Zu8M4p2yj3aWUvF36w08jzdLt9vwTtSTGIvgq1+7ggb3JCVEUqxSMxiqhC7SrXYw
ZWcSpU6zdytgoQpMO8NjL3E9MkQuHOxbAmOw9ftGsWkN/45s+VQoiPMTB53dHQsj
+YLoHRky9BhIbhGpST4oo9QzinIQXcpM8l+V1ko4uYEEBn6gzLxVu7oRW1/iyzsG
Tsk+p2ujBaPuDtp+1wNWNL0qguUzV4OxkpDfulkTBLq4df9ozowMg2lypxpyBD7X
ZsLFulWE2BPAEH9o65Rgw3CI/MiFfwGyEA==
-----END CERTIFICATE-----
